target datalayout = "e-m:e-p270:32:32-p271:32:32-p272:64:64-i64:64-i128:128-f80:128-n8:16:32:64-S128"
target triple = "x86_64-pc-linux-gnu"

%struct.X509_name_st = type { ptr, i32, ptr, ptr, i32 }
%struct.X509_name_entry_st = type { ptr, ptr, i32, i32 }

; Function Attrs: inlinehint nounwind uwtable
define internal ptr @ossl_check_X509_NAME_ENTRY_sk_type(ptr noundef %0) #4 {
  %2 = alloca ptr, align 8
  store ptr %0, ptr %2, align 8, !tbaa !25
  %3 = load ptr, ptr %2, align 8, !tbaa !25
  ret ptr %3
}

; Function Attrs: inlinehint nounwind uwtable
define internal ptr @ossl_check_const_X509_NAME_ENTRY_sk_type(ptr noundef %0) #4 {
  %2 = alloca ptr, align 8
  store ptr %0, ptr %2, align 8, !tbaa !25
  %3 = load ptr, ptr %2, align 8, !tbaa !25
  ret ptr %3
}

; Function Attrs: nounwind uwtable
define ptr @X509_NAME_delete_entry(ptr noundef %0, i32 noundef %1) #0 {
  %3 = alloca ptr, align 8
  %4 = alloca ptr, align 8
  %5 = alloca i32, align 4
  %6 = alloca ptr, align 8
  %7 = alloca i32, align 4
  %8 = alloca i32, align 4
  %9 = alloca i32, align 4
  %10 = alloca i32, align 4
  %11 = alloca ptr, align 8
  %12 = alloca i32, align 4
  store ptr %0, ptr %4, align 8, !tbaa !3
  store i32 %1, ptr %5, align 4, !tbaa !8
  call void @llvm.lifetime.start.p0(i64 8, ptr %6) #6
  call void @llvm.lifetime.start.p0(i64 4, ptr %7) #6
  call void @llvm.lifetime.start.p0(i64 4, ptr %8) #6
  call void @llvm.lifetime.start.p0(i64 4, ptr %9) #6
  call void @llvm.lifetime.start.p0(i64 4, ptr %10) #6
  call void @llvm.lifetime.start.p0(i64 8, ptr %11) #6
  %13 = load ptr, ptr %4, align 8, !tbaa !3
  %14 = icmp eq ptr %13, null
  br i1 %14, label %26, label %15

15:                                               ; preds = %2
  %16 = load ptr, ptr %4, align 8, !tbaa !3
  %17 = getelementptr inbounds nuw %struct.X509_name_st, ptr %16, i32 0, i32 0
  %18 = load ptr, ptr %17, align 8, !tbaa !21
  %19 = call ptr @ossl_check_const_X509_NAME_ENTRY_sk_type(ptr noundef %18)
  %20 = call i32 @OPENSSL_sk_num(ptr noundef %19)
  %21 = load i32, ptr %5, align 4, !tbaa !8
  %22 = icmp sle i32 %20, %21
  br i1 %22, label %26, label %23

23:                                               ; preds = %15
  %24 = load i32, ptr %5, align 4, !tbaa !8
  %25 = icmp slt i32 %24, 0
  br i1 %25, label %26, label %27

26:                                               ; preds = %23, %15, %2
  store ptr null, ptr %3, align 8
  store i32 1, ptr %12, align 4
  br label %92

27:                                               ; preds = %23
  %28 = load ptr, ptr %4, align 8, !tbaa !3
  %29 = getelementptr inbounds nuw %struct.X509_name_st, ptr %28, i32 0, i32 0
  %30 = load ptr, ptr %29, align 8, !tbaa !21
  store ptr %30, ptr %11, align 8, !tbaa !25
  %31 = load ptr, ptr %11, align 8, !tbaa !25
  %32 = call ptr @ossl_check_X509_NAME_ENTRY_sk_type(ptr noundef %31)
  %33 = load i32, ptr %5, align 4, !tbaa !8
  %34 = call ptr @OPENSSL_sk_delete(ptr noundef %32, i32 noundef %33)
  store ptr %34, ptr %6, align 8, !tbaa !26
  %35 = load ptr, ptr %11, align 8, !tbaa !25
  %36 = call ptr @ossl_check_const_X509_NAME_ENTRY_sk_type(ptr noundef %35)
  %37 = call i32 @OPENSSL_sk_num(ptr noundef %36)
  store i32 %37, ptr %8, align 4, !tbaa !8
  %38 = load ptr, ptr %4, align 8, !tbaa !3
  %39 = getelementptr inbounds nuw %struct.X509_name_st, ptr %38, i32 0, i32 1
  store i32 1, ptr %39, align 8, !tbaa !33
  %40 = load i32, ptr %5, align 4, !tbaa !8
  %41 = load i32, ptr %8, align 4, !tbaa !8
  %42 = icmp eq i32 %40, %41
  br i1 %42, label %43, label %45

43:                                               ; preds = %27
  %44 = load ptr, ptr %6, align 8, !tbaa !26
  store ptr %44, ptr %3, align 8
  store i32 1, ptr %12, align 4
  br label %92

45:                                               ; preds = %27
  %46 = load i32, ptr %5, align 4, !tbaa !8
  %47 = icmp ne i32 %46, 0
  br i1 %47, label %48, label %56

48:                                               ; preds = %45
  %49 = load ptr, ptr %11, align 8, !tbaa !25
  %50 = call ptr @ossl_check_const_X509_NAME_ENTRY_sk_type(ptr noundef %49)
  %51 = load i32, ptr %5, align 4, !tbaa !8
  %52 = sub nsw i32 %51, 1
  %53 = call ptr @OPENSSL_sk_value(ptr noundef %50, i32 noundef %52)
  %54 = getelementptr inbounds nuw %struct.X509_name_entry_st, ptr %53, i32 0, i32 2
  %55 = load i32, ptr %54, align 8, !tbaa !34
  store i32 %55, ptr %9, align 4, !tbaa !8
  br label %61

56:                                               ; preds = %45
  %57 = load ptr, ptr %6, align 8, !tbaa !26
  %58 = getelementptr inbounds nuw %struct.X509_name_entry_st, ptr %57, i32 0, i32 2
  %59 = load i32, ptr %58, align 8, !tbaa !34
  %60 = sub nsw i32 %59, 1
  store i32 %60, ptr %9, align 4, !tbaa !8
  br label %61

61:                                               ; preds = %56, %48
  %62 = load ptr, ptr %11, align 8, !tbaa !25
  %63 = call ptr @ossl_check_const_X509_NAME_ENTRY_sk_type(ptr noundef %62)
  %64 = load i32, ptr %5, align 4, !tbaa !8
  %65 = call ptr @OPENSSL_sk_value(ptr noundef %63, i32 noundef %64)
  %66 = getelementptr inbounds nuw %struct.X509_name_entry_st, ptr %65, i32 0, i32 2
  %67 = load i32, ptr %66, align 8, !tbaa !34
  store i32 %67, ptr %10, align 4, !tbaa !8
  %68 = load i32, ptr %9, align 4, !tbaa !8
  %69 = add nsw i32 %68, 1
  %70 = load i32, ptr %10, align 4, !tbaa !8
  %71 = icmp slt i32 %69, %70
  br i1 %71, label %72, label %90

72:                                               ; preds = %61
  %73 = load i32, ptr %5, align 4, !tbaa !8
  store i32 %73, ptr %7, align 4, !tbaa !8
  br label %74

74:                                               ; preds = %86, %72
  %75 = load i32, ptr %7, align 4, !tbaa !8
  %76 = load i32, ptr %8, align 4, !tbaa !8
  %77 = icmp slt i32 %75, %76
  br i1 %77, label %78, label %89

78:                                               ; preds = %74
  %79 = load ptr, ptr %11, align 8, !tbaa !25
  %80 = call ptr @ossl_check_const_X509_NAME_ENTRY_sk_type(ptr noundef %79)
  %81 = load i32, ptr %7, align 4, !tbaa !8
  %82 = call ptr @OPENSSL_sk_value(ptr noundef %80, i32 noundef %81)
  %83 = getelementptr inbounds nuw %struct.X509_name_entry_st, ptr %82, i32 0, i32 2
  %84 = load i32, ptr %83, align 8, !tbaa !34
  %85 = add nsw i32 %84, -1
  store i32 %85, ptr %83, align 8, !tbaa !34
  br label %86

86:                                               ; preds = %78
  %87 = load i32, ptr %7, align 4, !tbaa !8
  %88 = add nsw i32 %87, 1
  store i32 %88, ptr %7, align 4, !tbaa !8
  br label %74, !llvm.loop !35

89:                                               ; preds = %74
  br label %90

90:                                               ; preds = %89, %61
  %91 = load ptr, ptr %6, align 8, !tbaa !26
  store ptr %91, ptr %3, align 8
  store i32 1, ptr %12, align 4
  br label %92

92:                                               ; preds = %90, %43, %26
  call void @llvm.lifetime.end.p0(i64 8, ptr %11) #6
  call void @llvm.lifetime.end.p0(i64 4, ptr %10) #6
  call void @llvm.lifetime.end.p0(i64 4, ptr %9) #6
  call void @llvm.lifetime.end.p0(i64 4, ptr %8) #6
  call void @llvm.lifetime.end.p0(i64 4, ptr %7) #6
  call void @llvm.lifetime.end.p0(i64 8, ptr %6) #6
  %93 = load ptr, ptr %3, align 8
  ret ptr %93
}