; Function Attrs: nounwind uwtable
define ptr @X509_NAME_delete_entry(ptr noundef captures(address_is_null) %0, i32 noundef %1) local_unnamed_addr #0 {
  %3 = icmp eq ptr %0, null
  br i1 %3, label %.loopexit, label %4

4:                                                ; preds = %2
  %5 = load ptr, ptr %0, align 8, !tbaa !3
  %6 = tail call i32 @OPENSSL_sk_num(ptr noundef %5) #6
  %7 = icmp sle i32 %6, %1
  %8 = icmp slt i32 %1, 0
  %or.cond = or i1 %8, %7
  br i1 %or.cond, label %.loopexit, label %9

9:                                                ; preds = %4
  %10 = load ptr, ptr %0, align 8, !tbaa !3
  %11 = tail call ptr @OPENSSL_sk_delete(ptr noundef %10, i32 noundef %1) #6
  %12 = tail call i32 @OPENSSL_sk_num(ptr noundef %10) #6
  %13 = getelementptr inbounds nuw i8, ptr %0, i64 8
  store i32 1, ptr %13, align 8, !tbaa !24
  %14 = icmp eq i32 %1, %12
  br i1 %14, label %.loopexit, label %15

15:                                               ; preds = %9
  %.not = icmp eq i32 %1, 0
  br i1 %.not, label %22, label %16

16:                                               ; preds = %15
  %17 = add nsw i32 %1, -1
  %18 = tail call ptr @OPENSSL_sk_value(ptr noundef %10, i32 noundef %17) #6
  %19 = getelementptr inbounds nuw i8, ptr %18, i64 16
  %20 = load i32, ptr %19, align 8, !tbaa !25
  %21 = add nsw i32 %20, 1
  br label %25

22:                                               ; preds = %15
  %23 = getelementptr inbounds nuw i8, ptr %11, i64 16
  %24 = load i32, ptr %23, align 8, !tbaa !25
  br label %25

25:                                               ; preds = %22, %16
  %.029 = phi i32 [ %21, %16 ], [ %24, %22 ]
  %26 = tail call ptr @OPENSSL_sk_value(ptr noundef %10, i32 noundef %1) #6
  %27 = getelementptr inbounds nuw i8, ptr %26, i64 16
  %28 = load i32, ptr %27, align 8, !tbaa !25
  %29 = icmp slt i32 %.029, %28
  %30 = icmp slt i32 %1, %12
  %or.cond34 = and i1 %29, %30
  br i1 %or.cond34, label %.lr.ph, label %.loopexit

.lr.ph:                                           ; preds = %25, %.lr.ph
  %.02833 = phi i32 [ %35, %.lr.ph ], [ %1, %25 ]
  %31 = tail call ptr @OPENSSL_sk_value(ptr noundef %10, i32 noundef %.02833) #6
  %32 = getelementptr inbounds nuw i8, ptr %31, i64 16
  %33 = load i32, ptr %32, align 8, !tbaa !25
  %34 = add nsw i32 %33, -1
  store i32 %34, ptr %32, align 8, !tbaa !25
  %35 = add i32 %.02833, 1
  %exitcond.not = icmp eq i32 %35, %12
  br i1 %exitcond.not, label %.loopexit, label %.lr.ph, !llvm.loop !26

.loopexit:                                        ; preds = %.lr.ph, %25, %9, %2, %4
  %.0 = phi ptr [ null, %4 ], [ null, %2 ], [ %11, %9 ], [ %11, %25 ], [ %11, %.lr.ph ]
  ret ptr %.0
}